target datalayout = "e-m:e-p270:32:32-p271:32:32-p272:64:64-i64:64-i128:128-f80:128-n8:16:32:64-S128"
target triple = "x86_64-pc-linux-gnu"

%"class.fmt::v11::file" = type { i32 }
%"class.fmt::v11::detail::buffer" = type { ptr, i64, i64, ptr }
%"class.fmt::v11::ostream" = type <{ %"class.fmt::v11::detail::buffer", %"class.fmt::v11::file", [4 x i8] }>

; Function Attrs: mustprogress nounwind uwtable
define linkonce_odr hidden void @_ZN3fmt3v116detail6bufferIcE5clearEv(ptr noundef nonnull align 8 dereferenceable(32) %0) #0 comdat align 2 {
  %2 = alloca ptr, align 8
  store ptr %0, ptr %2, align 8, !tbaa !94
  %3 = load ptr, ptr %2, align 8
  %4 = getelementptr inbounds nuw %"class.fmt::v11::detail::buffer", ptr %3, i32 0, i32 1
  store i64 0, ptr %4, align 8, !tbaa !96
  ret void
}

; Function Attrs: mustprogress nounwind uwtable
define linkonce_odr hidden noundef ptr @_ZN3fmt3v116detail6bufferIcE4dataEv(ptr noundef nonnull align 8 dereferenceable(32) %0) #0 comdat align 2 {
  %2 = alloca ptr, align 8
  store ptr %0, ptr %2, align 8, !tbaa !94
  %3 = load ptr, ptr %2, align 8
  %4 = getelementptr inbounds nuw %"class.fmt::v11::detail::buffer", ptr %3, i32 0, i32 0
  %5 = load ptr, ptr %4, align 8, !tbaa !107
  ret ptr %5
}

; Function Attrs: inlinehint mustprogress uwtable
define linkonce_odr hidden void @_ZN3fmt3v117ostream5flushEv(ptr noundef nonnull align 8 dereferenceable(36) %0) #6 comdat align 2 {
  %2 = alloca ptr, align 8
  store ptr %0, ptr %2, align 8, !tbaa !99
  %3 = load ptr, ptr %2, align 8
  %4 = call noundef i64 @_ZNK3fmt3v116detail6bufferIcE4sizeEv(ptr noundef nonnull align 8 dereferenceable(32) %3) #16
  %5 = icmp eq i64 %4, 0
  br i1 %5, label %6, label %7

6:                                                ; preds = %1
  br label %13

7:                                                ; preds = %1
  %8 = getelementptr inbounds nuw %"class.fmt::v11::ostream", ptr %3, i32 0, i32 1
  %9 = call noundef ptr @_ZN3fmt3v116detail6bufferIcE4dataEv(ptr noundef nonnull align 8 dereferenceable(32) %3) #16
  %10 = call noundef i64 @_ZNK3fmt3v116detail6bufferIcE4sizeEv(ptr noundef nonnull align 8 dereferenceable(32) %3) #16
  %11 = mul i64 %10, 1
  %12 = call noundef i64 @_ZN3fmt3v114file5writeEPKvm(ptr noundef nonnull align 4 dereferenceable(4) %8, ptr noundef %9, i64 noundef %11)
  call void @_ZN3fmt3v116detail6bufferIcE5clearEv(ptr noundef nonnull align 8 dereferenceable(32) %3)
  br label %13

13:                                               ; preds = %7, %6
  ret void
}

; Function Attrs: mustprogress nounwind uwtable
define linkonce_odr hidden noundef i64 @_ZNK3fmt3v116detail6bufferIcE8capacityEv(ptr noundef nonnull align 8 dereferenceable(32) %0) #0 comdat align 2 {
  %2 = alloca ptr, align 8
  store ptr %0, ptr %2, align 8, !tbaa !94
  %3 = load ptr, ptr %2, align 8
  %4 = getelementptr inbounds nuw %"class.fmt::v11::detail::buffer", ptr %3, i32 0, i32 2
  %5 = load i64, ptr %4, align 8, !tbaa !98
  ret i64 %5
}

; Function Attrs: mustprogress nounwind uwtable
define linkonce_odr hidden noundef i64 @_ZNK3fmt3v116detail6bufferIcE4sizeEv(ptr noundef nonnull align 8 dereferenceable(32) %0) #0 comdat align 2 {
  %2 = alloca ptr, align 8
  store ptr %0, ptr %2, align 8, !tbaa !94
  %3 = load ptr, ptr %2, align 8
  %4 = getelementptr inbounds nuw %"class.fmt::v11::detail::buffer", ptr %3, i32 0, i32 1
  %5 = load i64, ptr %4, align 8, !tbaa !96
  ret i64 %5
}

; Function Attrs: mustprogress uwtable
define hidden void @_ZN3fmt3v117ostream4growERNS0_6detail6bufferIcEEm(ptr noundef nonnull align 8 dereferenceable(32) %0, i64 noundef %1) #1 align 2 {
  %3 = alloca ptr, align 8
  %4 = alloca i64, align 8
  store ptr %0, ptr %3, align 8, !tbaa !94
  store i64 %1, ptr %4, align 8, !tbaa !26
  %5 = load ptr, ptr %3, align 8, !tbaa !94
  %6 = call noundef i64 @_ZNK3fmt3v116detail6bufferIcE4sizeEv(ptr noundef nonnull align 8 dereferenceable(32) %5) #16
  %7 = load ptr, ptr %3, align 8, !tbaa !94
  %8 = call noundef i64 @_ZNK3fmt3v116detail6bufferIcE8capacityEv(ptr noundef nonnull align 8 dereferenceable(32) %7) #16
  %9 = icmp eq i64 %6, %8
  br i1 %9, label %10, label %12

10:                                               ; preds = %2
  %11 = load ptr, ptr %3, align 8, !tbaa !94
  call void @_ZN3fmt3v117ostream5flushEv(ptr noundef nonnull align 8 dereferenceable(36) %11)
  br label %12

12:                                               ; preds = %10, %2
  ret void
}